target datalayout = "e-m:e-p270:32:32-p271:32:32-p272:64:64-i64:64-i128:128-f80:128-n8:16:32:64-S128"
target triple = "x86_64-pc-linux-gnu"

%struct.H5P_genclass_t = type { ptr, ptr, i32, i64, i32, i32, i32, i8, i32, ptr, ptr, ptr, ptr, ptr, ptr, ptr }
%struct.H5P_genprop_t = type { ptr, i64, ptr, i32, i8, ptr, ptr, ptr, ptr, ptr, ptr, ptr, ptr, ptr }

@H5P_init_g = external global i8, align 1
@H5_libterm_g = external global i8, align 1
@.str.7 = private unnamed_addr constant [100 x i8] c"generated/home/dtcxzyw/WorkSpace/Projects/compilers/llvm-opt-benchmark/bench/hdf5/hdf5/src/H5Pint.c\00", align 1
@H5E_PLIST_g = external global i64, align 8
@H5E_CANTCREATE_g = external global i64, align 8
@H5E_CANTINSERT_g = external global i64, align 8
@.str.19 = private unnamed_addr constant [33 x i8] c"Can't insert property into class\00", align 1
@.str.28 = private unnamed_addr constant [22 x i8] c"Can't create property\00", align 1
@__func__.H5P__add_prop = private unnamed_addr constant [14 x i8] c"H5P__add_prop\00", align 1
@.str.32 = private unnamed_addr constant [37 x i8] c"can't insert property into skip list\00", align 1
@H5P_next_rev = internal global i32 0, align 4
@__func__.H5P__register_real = private unnamed_addr constant [19 x i8] c"H5P__register_real\00", align 1
@H5E_EXISTS_g = external global i64, align 8
@.str.40 = private unnamed_addr constant [24 x i8] c"property already exists\00", align 1
@H5E_CANTRELEASE_g = external global i64, align 8
@.str.41 = private unnamed_addr constant [25 x i8] c"unable to close property\00", align 1
@H5_H5P_genprop_t_reg_free_list = internal global { i8, [3 x i8], i32, i32, [4 x i8], ptr, i64, ptr } { i8 0, [3 x i8] zeroinitializer, i32 0, i32 0, [4 x i8] zeroinitializer, ptr @.str.86, i64 104, ptr null }, align 8

; Function Attrs: nounwind uwtable
define internal i32 @H5P__free_prop(ptr noundef %0) #0 {
  %2 = alloca ptr, align 8
  store ptr %0, ptr %2, align 8, !tbaa !68
  %3 = load i8, ptr @H5P_init_g, align 1, !tbaa !7, !range !9, !noundef !10
  %4 = trunc i8 %3 to i1
  br i1 %4, label %9, label %5

5:                                                ; preds = %1
  %6 = load i8, ptr @H5_libterm_g, align 1, !tbaa !7, !range !9, !noundef !10
  %7 = trunc i8 %6 to i1
  %8 = xor i1 %7, true
  br label %9

9:                                                ; preds = %5, %1
  %10 = phi i1 [ true, %1 ], [ %8, %5 ]
  %11 = xor i1 %10, true
  %12 = xor i1 %11, true
  %13 = zext i1 %12 to i32
  %14 = sext i32 %13 to i64
  %15 = call i64 @llvm.expect.i64(i64 %14, i64 1)
  %16 = icmp ne i64 %15, 0
  br i1 %16, label %17, label %40

17:                                               ; preds = %9
  %18 = load ptr, ptr %2, align 8, !tbaa !68
  %19 = getelementptr inbounds nuw %struct.H5P_genprop_t, ptr %18, i32 0, i32 2
  %20 = load ptr, ptr %19, align 8, !tbaa !75
  %21 = icmp ne ptr %20, null
  br i1 %21, label %22, label %27

22:                                               ; preds = %17
  %23 = load ptr, ptr %2, align 8, !tbaa !68
  %24 = getelementptr inbounds nuw %struct.H5P_genprop_t, ptr %23, i32 0, i32 2
  %25 = load ptr, ptr %24, align 8, !tbaa !75
  %26 = call ptr @H5MM_xfree(ptr noundef %25)
  br label %27

27:                                               ; preds = %22, %17
  %28 = load ptr, ptr %2, align 8, !tbaa !68
  %29 = getelementptr inbounds nuw %struct.H5P_genprop_t, ptr %28, i32 0, i32 4
  %30 = load i8, ptr %29, align 4, !tbaa !74, !range !9, !noundef !10
  %31 = trunc i8 %30 to i1
  br i1 %31, label %37, label %32

32:                                               ; preds = %27
  %33 = load ptr, ptr %2, align 8, !tbaa !68
  %34 = getelementptr inbounds nuw %struct.H5P_genprop_t, ptr %33, i32 0, i32 0
  %35 = load ptr, ptr %34, align 8, !tbaa !71
  %36 = call ptr @H5MM_xfree(ptr noundef %35)
  br label %37

37:                                               ; preds = %32, %27
  %38 = load ptr, ptr %2, align 8, !tbaa !68
  %39 = call ptr @H5FL_reg_free(ptr noundef @H5_H5P_genprop_t_reg_free_list, ptr noundef %38)
  store ptr %39, ptr %2, align 8, !tbaa !68
  br label %40

40:                                               ; preds = %37, %9
  ret i32 0
}

; Function Attrs: nounwind uwtable
define i32 @H5P__add_prop(ptr noundef %0, ptr noundef %1) #0 {
  %3 = alloca ptr, align 8
  %4 = alloca ptr, align 8
  %5 = alloca i32, align 4
  %6 = alloca i8, align 1
  store ptr %0, ptr %3, align 8, !tbaa !77
  store ptr %1, ptr %4, align 8, !tbaa !68
  call void @llvm.lifetime.start.p0(i64 4, ptr %5) #8
  store i32 0, ptr %5, align 4, !tbaa !3
  call void @llvm.lifetime.start.p0(i64 1, ptr %6) #8
  store i8 0, ptr %6, align 1, !tbaa !7
  %7 = load i8, ptr @H5P_init_g, align 1, !tbaa !7, !range !9, !noundef !10
  %8 = trunc i8 %7 to i1
  br i1 %8, label %13, label %9

9:                                                ; preds = %2
  %10 = load i8, ptr @H5_libterm_g, align 1, !tbaa !7, !range !9, !noundef !10
  %11 = trunc i8 %10 to i1
  %12 = xor i1 %11, true
  br label %13

13:                                               ; preds = %9, %2
  %14 = phi i1 [ true, %2 ], [ %12, %9 ]
  %15 = xor i1 %14, true
  %16 = xor i1 %15, true
  %17 = zext i1 %16 to i32
  %18 = sext i32 %17 to i64
  %19 = call i64 @llvm.expect.i64(i64 %18, i64 1)
  %20 = icmp ne i64 %19, 0
  br i1 %20, label %21, label %50

21:                                               ; preds = %13
  %22 = load ptr, ptr %3, align 8, !tbaa !77
  %23 = load ptr, ptr %4, align 8, !tbaa !68
  %24 = load ptr, ptr %4, align 8, !tbaa !68
  %25 = getelementptr inbounds nuw %struct.H5P_genprop_t, ptr %24, i32 0, i32 0
  %26 = load ptr, ptr %25, align 8, !tbaa !71
  %27 = call i32 @H5SL_insert(ptr noundef %22, ptr noundef %23, ptr noundef %26)
  %28 = icmp slt i32 %27, 0
  br i1 %28, label %29, label %48

29:                                               ; preds = %21
  br label %30

30:                                               ; preds = %29
  br label %31

31:                                               ; preds = %30
  br label %32

32:                                               ; preds = %31
  %33 = load i64, ptr @H5E_PLIST_g, align 8, !tbaa !11
  %34 = load i64, ptr @H5E_CANTINSERT_g, align 8, !tbaa !11
  %35 = call i32 (ptr, ptr, i32, i64, i64, ptr, ...) @H5E_printf_stack(ptr noundef @.str.7, ptr noundef @__func__.H5P__add_prop, i32 noundef 1386, i64 noundef %33, i64 noundef %34, ptr noundef @.str.32)
  br label %36

36:                                               ; preds = %32
  br label %37

37:                                               ; preds = %36
  store i8 1, ptr %6, align 1, !tbaa !7
  %38 = load i8, ptr %6, align 1, !tbaa !7, !range !9, !noundef !10
  %39 = trunc i8 %38 to i1
  %40 = zext i1 %39 to i8
  store i8 %40, ptr %6, align 1, !tbaa !7
  br label %41

41:                                               ; preds = %37
  br label %42

42:                                               ; preds = %41
  br label %43

43:                                               ; preds = %42
  store i32 -1, ptr %5, align 4, !tbaa !3
  br label %49

44:                                               ; No predecessors!
  br label %45

45:                                               ; preds = %44
  br label %46

46:                                               ; preds = %45
  br label %47

47:                                               ; preds = %46
  br label %48

48:                                               ; preds = %47, %21
  br label %49

49:                                               ; preds = %48, %43
  br label %50

50:                                               ; preds = %49, %13
  %51 = load i32, ptr %5, align 4, !tbaa !3
  call void @llvm.lifetime.end.p0(i64 1, ptr %6) #8
  call void @llvm.lifetime.end.p0(i64 4, ptr %5) #8
  ret i32 %51
}

; Function Attrs: nounwind uwtable
define i32 @H5P__register_real(ptr noundef %0, ptr noundef %1, i64 noundef %2, ptr noundef %3, ptr noundef %4, ptr noundef %5, ptr noundef %6, ptr noundef %7, ptr noundef %8, ptr noundef %9, ptr noundef %10, ptr noundef %11, ptr noundef %12) #0 {
  %14 = alloca ptr, align 8
  %15 = alloca ptr, align 8
  %16 = alloca i64, align 8
  %17 = alloca ptr, align 8
  %18 = alloca ptr, align 8
  %19 = alloca ptr, align 8
  %20 = alloca ptr, align 8
  %21 = alloca ptr, align 8
  %22 = alloca ptr, align 8
  %23 = alloca ptr, align 8
  %24 = alloca ptr, align 8
  %25 = alloca ptr, align 8
  %26 = alloca ptr, align 8
  %27 = alloca ptr, align 8
  %28 = alloca i32, align 4
  %29 = alloca i8, align 1
  store ptr %0, ptr %14, align 8, !tbaa !22
  store ptr %1, ptr %15, align 8, !tbaa !39
  store i64 %2, ptr %16, align 8, !tbaa !11
  store ptr %3, ptr %17, align 8, !tbaa !40
  store ptr %4, ptr %18, align 8, !tbaa !40
  store ptr %5, ptr %19, align 8, !tbaa !40
  store ptr %6, ptr %20, align 8, !tbaa !40
  store ptr %7, ptr %21, align 8, !tbaa !40
  store ptr %8, ptr %22, align 8, !tbaa !40
  store ptr %9, ptr %23, align 8, !tbaa !40
  store ptr %10, ptr %24, align 8, !tbaa !40
  store ptr %11, ptr %25, align 8, !tbaa !40
  store ptr %12, ptr %26, align 8, !tbaa !40
  call void @llvm.lifetime.start.p0(i64 8, ptr %27) #8
  store ptr null, ptr %27, align 8, !tbaa !68
  call void @llvm.lifetime.start.p0(i64 4, ptr %28) #8
  store i32 0, ptr %28, align 4, !tbaa !3
  call void @llvm.lifetime.start.p0(i64 1, ptr %29) #8
  store i8 0, ptr %29, align 1, !tbaa !7
  %30 = load i8, ptr @H5P_init_g, align 1, !tbaa !7, !range !9, !noundef !10
  %31 = trunc i8 %30 to i1
  br i1 %31, label %36, label %32

32:                                               ; preds = %13
  %33 = load i8, ptr @H5_libterm_g, align 1, !tbaa !7, !range !9, !noundef !10
  %34 = trunc i8 %33 to i1
  %35 = xor i1 %34, true
  br label %36

36:                                               ; preds = %32, %13
  %37 = phi i1 [ true, %13 ], [ %35, %32 ]
  %38 = xor i1 %37, true
  %39 = xor i1 %38, true
  %40 = zext i1 %39 to i32
  %41 = sext i32 %40 to i64
  %42 = call i64 @llvm.expect.i64(i64 %41, i64 1)
  %43 = icmp ne i64 %42, 0
  br i1 %43, label %44, label %167

44:                                               ; preds = %36
  %45 = load ptr, ptr %14, align 8, !tbaa !22
  %46 = getelementptr inbounds nuw %struct.H5P_genclass_t, ptr %45, i32 0, i32 9
  %47 = load ptr, ptr %46, align 8, !tbaa !52
  %48 = load ptr, ptr %15, align 8, !tbaa !39
  %49 = call ptr @H5SL_search(ptr noundef %47, ptr noundef %48)
  %50 = icmp ne ptr null, %49
  br i1 %50, label %51, label %70

51:                                               ; preds = %44
  br label %52

52:                                               ; preds = %51
  br label %53

53:                                               ; preds = %52
  br label %54

54:                                               ; preds = %53
  %55 = load i64, ptr @H5E_PLIST_g, align 8, !tbaa !11
  %56 = load i64, ptr @H5E_EXISTS_g, align 8, !tbaa !11
  %57 = call i32 (ptr, ptr, i32, i64, i64, ptr, ...) @H5E_printf_stack(ptr noundef @.str.7, ptr noundef @__func__.H5P__register_real, i32 noundef 2271, i64 noundef %55, i64 noundef %56, ptr noundef @.str.40)
  br label %58

58:                                               ; preds = %54
  br label %59

59:                                               ; preds = %58
  store i8 1, ptr %29, align 1, !tbaa !7
  %60 = load i8, ptr %29, align 1, !tbaa !7, !range !9, !noundef !10
  %61 = trunc i8 %60 to i1
  %62 = zext i1 %61 to i8
  store i8 %62, ptr %29, align 1, !tbaa !7
  br label %63

63:                                               ; preds = %59
  br label %64

64:                                               ; preds = %63
  br label %65

65:                                               ; preds = %64
  store i32 -1, ptr %28, align 4, !tbaa !3
  br label %139

66:                                               ; No predecessors!
  br label %67

67:                                               ; preds = %66
  br label %68

68:                                               ; preds = %67
  br label %69

69:                                               ; preds = %68
  br label %70

70:                                               ; preds = %69, %44
  %71 = load ptr, ptr %15, align 8, !tbaa !39
  %72 = load i64, ptr %16, align 8, !tbaa !11
  %73 = load ptr, ptr %17, align 8, !tbaa !40
  %74 = load ptr, ptr %18, align 8, !tbaa !40
  %75 = load ptr, ptr %19, align 8, !tbaa !40
  %76 = load ptr, ptr %20, align 8, !tbaa !40
  %77 = load ptr, ptr %21, align 8, !tbaa !40
  %78 = load ptr, ptr %22, align 8, !tbaa !40
  %79 = load ptr, ptr %23, align 8, !tbaa !40
  %80 = load ptr, ptr %24, align 8, !tbaa !40
  %81 = load ptr, ptr %25, align 8, !tbaa !40
  %82 = load ptr, ptr %26, align 8, !tbaa !40
  %83 = call ptr @H5P__create_prop(ptr noundef %71, i64 noundef %72, i32 noundef 2, ptr noundef %73, ptr noundef %74, ptr noundef %75, ptr noundef %76, ptr noundef %77, ptr noundef %78, ptr noundef %79, ptr noundef %80, ptr noundef %81, ptr noundef %82)
  store ptr %83, ptr %27, align 8, !tbaa !68
  %84 = icmp eq ptr null, %83
  br i1 %84, label %85, label %104

85:                                               ; preds = %70
  br label %86

86:                                               ; preds = %85
  br label %87

87:                                               ; preds = %86
  br label %88

88:                                               ; preds = %87
  %89 = load i64, ptr @H5E_PLIST_g, align 8, !tbaa !11
  %90 = load i64, ptr @H5E_CANTCREATE_g, align 8, !tbaa !11
  %91 = call i32 (ptr, ptr, i32, i64, i64, ptr, ...) @H5E_printf_stack(ptr noundef @.str.7, ptr noundef @__func__.H5P__register_real, i32 noundef 2277, i64 noundef %89, i64 noundef %90, ptr noundef @.str.28)
  br label %92

92:                                               ; preds = %88
  br label %93

93:                                               ; preds = %92
  store i8 1, ptr %29, align 1, !tbaa !7
  %94 = load i8, ptr %29, align 1, !tbaa !7, !range !9, !noundef !10
  %95 = trunc i8 %94 to i1
  %96 = zext i1 %95 to i8
  store i8 %96, ptr %29, align 1, !tbaa !7
  br label %97

97:                                               ; preds = %93
  br label %98

98:                                               ; preds = %97
  br label %99

99:                                               ; preds = %98
  store i32 -1, ptr %28, align 4, !tbaa !3
  br label %139

100:                                              ; No predecessors!
  br label %101

101:                                              ; preds = %100
  br label %102

102:                                              ; preds = %101
  br label %103

103:                                              ; preds = %102
  br label %104

104:                                              ; preds = %103, %70
  %105 = load ptr, ptr %14, align 8, !tbaa !22
  %106 = getelementptr inbounds nuw %struct.H5P_genclass_t, ptr %105, i32 0, i32 9
  %107 = load ptr, ptr %106, align 8, !tbaa !52
  %108 = load ptr, ptr %27, align 8, !tbaa !68
  %109 = call i32 @H5P__add_prop(ptr noundef %107, ptr noundef %108)
  %110 = icmp slt i32 %109, 0
  br i1 %110, label %111, label %130

111:                                              ; preds = %104
  br label %112

112:                                              ; preds = %111
  br label %113

113:                                              ; preds = %112
  br label %114

114:                                              ; preds = %113
  %115 = load i64, ptr @H5E_PLIST_g, align 8, !tbaa !11
  %116 = load i64, ptr @H5E_CANTINSERT_g, align 8, !tbaa !11
  %117 = call i32 (ptr, ptr, i32, i64, i64, ptr, ...) @H5E_printf_stack(ptr noundef @.str.7, ptr noundef @__func__.H5P__register_real, i32 noundef 2281, i64 noundef %115, i64 noundef %116, ptr noundef @.str.19)
  br label %118

118:                                              ; preds = %114
  br label %119

119:                                              ; preds = %118
  store i8 1, ptr %29, align 1, !tbaa !7
  %120 = load i8, ptr %29, align 1, !tbaa !7, !range !9, !noundef !10
  %121 = trunc i8 %120 to i1
  %122 = zext i1 %121 to i8
  store i8 %122, ptr %29, align 1, !tbaa !7
  br label %123

123:                                              ; preds = %119
  br label %124

124:                                              ; preds = %123
  br label %125

125:                                              ; preds = %124
  store i32 -1, ptr %28, align 4, !tbaa !3
  br label %139

126:                                              ; No predecessors!
  br label %127

127:                                              ; preds = %126
  br label %128

128:                                              ; preds = %127
  br label %129

129:                                              ; preds = %128
  br label %130

130:                                              ; preds = %129, %104
  %131 = load ptr, ptr %14, align 8, !tbaa !22
  %132 = getelementptr inbounds nuw %struct.H5P_genclass_t, ptr %131, i32 0, i32 3
  %133 = load i64, ptr %132, align 8, !tbaa !46
  %134 = add i64 %133, 1
  store i64 %134, ptr %132, align 8, !tbaa !46
  %135 = load i32, ptr @H5P_next_rev, align 4, !tbaa !3
  %136 = add i32 %135, 1
  store i32 %136, ptr @H5P_next_rev, align 4, !tbaa !3
  %137 = load ptr, ptr %14, align 8, !tbaa !22
  %138 = getelementptr inbounds nuw %struct.H5P_genclass_t, ptr %137, i32 0, i32 8
  store i32 %135, ptr %138, align 8, !tbaa !51
  br label %139

139:                                              ; preds = %130, %125, %99, %65
  %140 = load i32, ptr %28, align 4, !tbaa !3
  %141 = icmp slt i32 %140, 0
  br i1 %141, label %142, label %166

142:                                              ; preds = %139
  %143 = load ptr, ptr %27, align 8, !tbaa !68
  %144 = icmp ne ptr %143, null
  br i1 %144, label %145, label %165

145:                                              ; preds = %142
  %146 = load ptr, ptr %27, align 8, !tbaa !68
  %147 = call i32 @H5P__free_prop(ptr noundef %146)
  %148 = icmp slt i32 %147, 0
  br i1 %148, label %149, label %165

149:                                              ; preds = %145
  br label %150

150:                                              ; preds = %149
  br label %151

151:                                              ; preds = %150
  br label %152

152:                                              ; preds = %151
  %153 = load i64, ptr @H5E_PLIST_g, align 8, !tbaa !11
  %154 = load i64, ptr @H5E_CANTRELEASE_g, align 8, !tbaa !11
  %155 = call i32 (ptr, ptr, i32, i64, i64, ptr, ...) @H5E_printf_stack(ptr noundef @.str.7, ptr noundef @__func__.H5P__register_real, i32 noundef 2292, i64 noundef %153, i64 noundef %154, ptr noundef @.str.41)
  br label %156

156:                                              ; preds = %152
  br label %157

157:                                              ; preds = %156
  store i8 1, ptr %29, align 1, !tbaa !7
  %158 = load i8, ptr %29, align 1, !tbaa !7, !range !9, !noundef !10
  %159 = trunc i8 %158 to i1
  %160 = zext i1 %159 to i8
  store i8 %160, ptr %29, align 1, !tbaa !7
  br label %161

161:                                              ; preds = %157
  br label %162

162:                                              ; preds = %161
  store i32 -1, ptr %28, align 4, !tbaa !3
  br label %163

163:                                              ; preds = %162
  br label %164

164:                                              ; preds = %163
  br label %165

165:                                              ; preds = %164, %145, %142
  br label %166

166:                                              ; preds = %165, %139
  br label %167

167:                                              ; preds = %166, %36
  %168 = load i32, ptr %28, align 4, !tbaa !3
  call void @llvm.lifetime.end.p0(i64 1, ptr %29) #8
  call void @llvm.lifetime.end.p0(i64 4, ptr %28) #8
  call void @llvm.lifetime.end.p0(i64 8, ptr %27) #8
  ret i32 %168
}