; Function Attrs: nounwind uwtable
define range(i32 -1, 1) i32 @H5P__register_real(ptr noundef captures(none) %0, ptr noundef %1, i64 noundef %2, ptr noundef captures(address_is_null) %3, ptr noundef %4, ptr noundef %5, ptr noundef %6, ptr noundef %7, ptr noundef %8, ptr noundef %9, ptr noundef %10, ptr noundef %11, ptr noundef %12) local_unnamed_addr #0 {
  %14 = load i8, ptr @H5P_init_g, align 1, !tbaa !3, !range !7, !noundef !8
  %15 = trunc nuw i8 %14 to i1
  %16 = load i8, ptr @H5_libterm_g, align 1, !range !7
  %17 = trunc nuw i8 %16 to i1
  %18 = xor i1 %17, true
  %19 = select i1 %15, i1 true, i1 %18
  br i1 %19, label %20, label %H5P__free_prop.exit, !prof !9

20:                                               ; preds = %13
  %21 = getelementptr inbounds nuw i8, ptr %0, i64 56
  %22 = load ptr, ptr %21, align 8, !tbaa !47
  %23 = tail call ptr @H5SL_search(ptr noundef %22, ptr noundef %1) #14
  %.not = icmp eq ptr %23, null
  br i1 %.not, label %28, label %24

24:                                               ; preds = %20
  %25 = load i64, ptr @H5E_PLIST_g, align 8, !tbaa !10
  %26 = load i64, ptr @H5E_EXISTS_g, align 8, !tbaa !10
  %27 = tail call i32 (ptr, ptr, i32, i64, i64, ptr, ...) @H5E_printf_stack(ptr noundef nonnull @.str.7, ptr noundef nonnull @__func__.H5P__register_real, i32 noundef 2271, i64 noundef %25, i64 noundef %26, ptr noundef nonnull @.str.40) #14
  br label %H5P__free_prop.exit

28:                                               ; preds = %20
  %29 = tail call fastcc ptr @H5P__create_prop(ptr noundef %1, i64 noundef %2, i32 noundef 2, ptr noundef %3, ptr noundef %4, ptr noundef %5, ptr noundef %6, ptr noundef %7, ptr noundef %8, ptr noundef %9, ptr noundef %10, ptr noundef %11, ptr noundef %12)
  %30 = icmp eq ptr %29, null
  br i1 %30, label %31, label %35

31:                                               ; preds = %28
  %32 = load i64, ptr @H5E_PLIST_g, align 8, !tbaa !10
  %33 = load i64, ptr @H5E_CANTCREATE_g, align 8, !tbaa !10
  %34 = tail call i32 (ptr, ptr, i32, i64, i64, ptr, ...) @H5E_printf_stack(ptr noundef nonnull @.str.7, ptr noundef nonnull @__func__.H5P__register_real, i32 noundef 2277, i64 noundef %32, i64 noundef %33, ptr noundef nonnull @.str.28) #14
  br label %H5P__free_prop.exit

35:                                               ; preds = %28
  %36 = load i8, ptr @H5P_init_g, align 1, !tbaa !3, !range !7, !noundef !8
  %37 = trunc nuw i8 %36 to i1
  %38 = load i8, ptr @H5_libterm_g, align 1, !range !7
  %39 = trunc nuw i8 %38 to i1
  %40 = xor i1 %39, true
  %41 = select i1 %37, i1 true, i1 %40
  br i1 %41, label %42, label %47, !prof !9

42:                                               ; preds = %35
  %43 = load ptr, ptr %21, align 8, !tbaa !47
  %44 = load ptr, ptr %29, align 8, !tbaa !61
  %45 = tail call i32 @H5SL_insert(ptr noundef %43, ptr noundef nonnull %29, ptr noundef %44) #14
  %46 = icmp slt i32 %45, 0
  br i1 %46, label %54, label %47

47:                                               ; preds = %42, %35
  %48 = getelementptr inbounds nuw i8, ptr %0, i64 24
  %49 = load i64, ptr %48, align 8, !tbaa !60
  %50 = add i64 %49, 1
  store i64 %50, ptr %48, align 8, !tbaa !60
  %51 = load i32, ptr @H5P_next_rev, align 4, !tbaa !45
  %52 = add i32 %51, 1
  store i32 %52, ptr @H5P_next_rev, align 4, !tbaa !45
  %53 = getelementptr inbounds nuw i8, ptr %0, i64 48
  store i32 %51, ptr %53, align 8, !tbaa !46
  br label %H5P__free_prop.exit

54:                                               ; preds = %42
  %55 = load i64, ptr @H5E_PLIST_g, align 8, !tbaa !10
  %56 = load i64, ptr @H5E_CANTINSERT_g, align 8, !tbaa !10
  %57 = tail call i32 (ptr, ptr, i32, i64, i64, ptr, ...) @H5E_printf_stack(ptr noundef nonnull @.str.7, ptr noundef nonnull @__func__.H5P__add_prop, i32 noundef 1386, i64 noundef %55, i64 noundef %56, ptr noundef nonnull @.str.32) #14
  %58 = load i64, ptr @H5E_PLIST_g, align 8, !tbaa !10
  %59 = load i64, ptr @H5E_CANTINSERT_g, align 8, !tbaa !10
  %60 = tail call i32 (ptr, ptr, i32, i64, i64, ptr, ...) @H5E_printf_stack(ptr noundef nonnull @.str.7, ptr noundef nonnull @__func__.H5P__register_real, i32 noundef 2281, i64 noundef %58, i64 noundef %59, ptr noundef nonnull @.str.19) #14
  %61 = load i8, ptr @H5P_init_g, align 1, !tbaa !3, !range !7, !noundef !8
  %62 = trunc nuw i8 %61 to i1
  %63 = load i8, ptr @H5_libterm_g, align 1, !range !7
  %64 = trunc nuw i8 %63 to i1
  %65 = xor i1 %64, true
  %66 = select i1 %62, i1 true, i1 %65
  br i1 %66, label %67, label %H5P__free_prop.exit, !prof !9

67:                                               ; preds = %54
  %68 = getelementptr inbounds nuw i8, ptr %29, i64 16
  %69 = load ptr, ptr %68, align 8, !tbaa !72
  %.not.i = icmp eq ptr %69, null
  br i1 %.not.i, label %72, label %70

70:                                               ; preds = %67
  %71 = tail call ptr @H5MM_xfree(ptr noundef nonnull %69) #14
  br label %72

72:                                               ; preds = %70, %67
  %73 = getelementptr inbounds nuw i8, ptr %29, i64 28
  %74 = load i8, ptr %73, align 4, !tbaa !71, !range !7, !noundef !8
  %75 = trunc nuw i8 %74 to i1
  br i1 %75, label %79, label %76

76:                                               ; preds = %72
  %77 = load ptr, ptr %29, align 8, !tbaa !61
  %78 = tail call ptr @H5MM_xfree(ptr noundef %77) #14
  br label %79

79:                                               ; preds = %76, %72
  %80 = tail call ptr @H5FL_reg_free(ptr noundef nonnull @H5_H5P_genprop_t_reg_free_list, ptr noundef nonnull %29) #14
  br label %H5P__free_prop.exit

H5P__free_prop.exit:                              ; preds = %31, %24, %47, %79, %54, %13
  %.0 = phi i32 [ 0, %13 ], [ -1, %54 ], [ -1, %79 ], [ 0, %47 ], [ -1, %31 ], [ -1, %24 ]
  ret i32 %.0
}